target datalayout = "e-m:e-p270:32:32-p271:32:32-p272:64:64-i64:64-i128:128-f80:128-n8:16:32:64-S128"
target triple = "x86_64-pc-linux-gnu"

%struct.decNumber = type { i32, i32, i8, [1 x i16] }
%struct.decContext = type { i32, i32, i32, i32, i32, i32, i8 }

; Function Attrs: nounwind uwtable
define dso_local i32 @decNumberIsSubnormal(ptr noundef %0, ptr noundef %1) #0 {
  %3 = alloca i32, align 4
  %4 = alloca ptr, align 8
  %5 = alloca ptr, align 8
  %6 = alloca i32, align 4
  %7 = alloca i32, align 4
  store ptr %0, ptr %4, align 8, !tbaa !4
  store ptr %1, ptr %5, align 8, !tbaa !4
  call void @llvm.lifetime.start.p0(i64 4, ptr %6) #7
  %8 = load ptr, ptr %4, align 8, !tbaa !4
  %9 = getelementptr inbounds nuw %struct.decNumber, ptr %8, i32 0, i32 2
  %10 = load i8, ptr %9, align 4, !tbaa !10
  %11 = zext i8 %10 to i32
  %12 = and i32 %11, 112
  %13 = icmp ne i32 %12, 0
  br i1 %13, label %14, label %15

14:                                               ; preds = %2
  store i32 0, ptr %3, align 4
  store i32 1, ptr %7, align 4
  br label %51

15:                                               ; preds = %2
  %16 = load ptr, ptr %4, align 8, !tbaa !4
  %17 = getelementptr inbounds nuw %struct.decNumber, ptr %16, i32 0, i32 3
  %18 = getelementptr inbounds [1 x i16], ptr %17, i64 0, i64 0
  %19 = load i16, ptr %18, align 2, !tbaa !14
  %20 = zext i16 %19 to i32
  %21 = icmp eq i32 %20, 0
  br i1 %21, label %22, label %35

22:                                               ; preds = %15
  %23 = load ptr, ptr %4, align 8, !tbaa !4
  %24 = getelementptr inbounds nuw %struct.decNumber, ptr %23, i32 0, i32 0
  %25 = load i32, ptr %24, align 4, !tbaa !18
  %26 = icmp eq i32 %25, 1
  br i1 %26, label %27, label %35

27:                                               ; preds = %22
  %28 = load ptr, ptr %4, align 8, !tbaa !4
  %29 = getelementptr inbounds nuw %struct.decNumber, ptr %28, i32 0, i32 2
  %30 = load i8, ptr %29, align 4, !tbaa !10
  %31 = zext i8 %30 to i32
  %32 = and i32 %31, 112
  %33 = icmp eq i32 %32, 0
  br i1 %33, label %34, label %35

34:                                               ; preds = %27
  store i32 0, ptr %3, align 4
  store i32 1, ptr %7, align 4
  br label %51

35:                                               ; preds = %27, %22, %15
  %36 = load ptr, ptr %4, align 8, !tbaa !4
  %37 = getelementptr inbounds nuw %struct.decNumber, ptr %36, i32 0, i32 1
  %38 = load i32, ptr %37, align 4, !tbaa !19
  %39 = load ptr, ptr %4, align 8, !tbaa !4
  %40 = getelementptr inbounds nuw %struct.decNumber, ptr %39, i32 0, i32 0
  %41 = load i32, ptr %40, align 4, !tbaa !18
  %42 = add nsw i32 %38, %41
  %43 = sub nsw i32 %42, 1
  store i32 %43, ptr %6, align 4, !tbaa !8
  %44 = load i32, ptr %6, align 4, !tbaa !8
  %45 = load ptr, ptr %5, align 8, !tbaa !4
  %46 = getelementptr inbounds nuw %struct.decContext, ptr %45, i32 0, i32 2
  %47 = load i32, ptr %46, align 4, !tbaa !38
  %48 = icmp slt i32 %44, %47
  br i1 %48, label %49, label %50

49:                                               ; preds = %35
  store i32 1, ptr %3, align 4
  store i32 1, ptr %7, align 4
  br label %51

50:                                               ; preds = %35
  store i32 0, ptr %3, align 4
  store i32 1, ptr %7, align 4
  br label %51

51:                                               ; preds = %50, %49, %34, %14
  call void @llvm.lifetime.end.p0(i64 4, ptr %6) #7
  %52 = load i32, ptr %3, align 4
  ret i32 %52
}